; Function Attrs: mustprogress uwtable
define void @_ZN13RichParameterC2ERK7QStringRK5ValueS2_S2_bS2_(ptr noundef nonnull align 8 dereferenceable(56) %0, ptr nocapture noundef nonnull readonly align 8 dereferenceable(8) %1, ptr noundef nonnull align 8 dereferenceable(8) %2, ptr nocapture noundef nonnull readonly align 8 dereferenceable(8) %3, ptr nocapture noundef nonnull readonly align 8 dereferenceable(8) %4, i1 noundef zeroext %5, ptr nocapture noundef nonnull readonly align 8 dereferenceable(8) %6) unnamed_addr #1 align 2 personality ptr @__gxx_personality_v0 {
  store ptr getelementptr inbounds ({ [8 x ptr] }, ptr @_ZTV13RichParameter, i64 0, i32 0, i64 2), ptr %0, align 8
  %8 = getelementptr inbounds i8, ptr %0, i64 8
  %9 = load ptr, ptr %1, align 8
  store ptr %9, ptr %8, align 8
  %10 = load atomic i32, ptr %9 monotonic, align 4
  %11 = add i32 %10, -1
  %or.cond.not.i.i = icmp ult i32 %11, -2
  br i1 %or.cond.not.i.i, label %12, label %_ZN7QStringC2ERKS_.exit

12:                                               ; preds = %7
  %13 = atomicrmw add ptr %9, i32 1 seq_cst, align 4
  br label %_ZN7QStringC2ERKS_.exit

_ZN7QStringC2ERKS_.exit:                          ; preds = %7, %12
  %14 = load ptr, ptr %2, align 8
  %15 = getelementptr inbounds i8, ptr %14, i64 160
  %16 = load ptr, ptr %15, align 8
  %17 = invoke noundef ptr %16(ptr noundef nonnull align 8 dereferenceable(8) %2)
          to label %18 unwind label %41

18:                                               ; preds = %_ZN7QStringC2ERKS_.exit
  %19 = getelementptr inbounds i8, ptr %0, i64 16
  %20 = zext i1 %5 to i8
  store ptr %17, ptr %19, align 8
  %21 = getelementptr inbounds i8, ptr %0, i64 24
  %22 = load ptr, ptr %3, align 8
  store ptr %22, ptr %21, align 8
  %23 = load atomic i32, ptr %22 monotonic, align 4
  %24 = add i32 %23, -1
  %or.cond.not.i.i8 = icmp ult i32 %24, -2
  br i1 %or.cond.not.i.i8, label %25, label %_ZN7QStringC2ERKS_.exit9

25:                                               ; preds = %18
  %26 = atomicrmw add ptr %22, i32 1 seq_cst, align 4
  br label %_ZN7QStringC2ERKS_.exit9

_ZN7QStringC2ERKS_.exit9:                         ; preds = %18, %25
  %27 = getelementptr inbounds i8, ptr %0, i64 32
  %28 = load ptr, ptr %4, align 8
  store ptr %28, ptr %27, align 8
  %29 = load atomic i32, ptr %28 monotonic, align 4
  %30 = add i32 %29, -1
  %or.cond.not.i.i10 = icmp ult i32 %30, -2
  br i1 %or.cond.not.i.i10, label %31, label %_ZN7QStringC2ERKS_.exit11

31:                                               ; preds = %_ZN7QStringC2ERKS_.exit9
  %32 = atomicrmw add ptr %28, i32 1 seq_cst, align 4
  br label %_ZN7QStringC2ERKS_.exit11

_ZN7QStringC2ERKS_.exit11:                        ; preds = %_ZN7QStringC2ERKS_.exit9, %31
  %33 = getelementptr inbounds i8, ptr %0, i64 40
  store i8 %20, ptr %33, align 8
  %34 = getelementptr inbounds i8, ptr %0, i64 41
  store i8 1, ptr %34, align 1
  %35 = getelementptr inbounds i8, ptr %0, i64 48
  %36 = load ptr, ptr %6, align 8
  store ptr %36, ptr %35, align 8
  %37 = load atomic i32, ptr %36 monotonic, align 4
  %38 = add i32 %37, -1
  %or.cond.not.i.i12 = icmp ult i32 %38, -2
  br i1 %or.cond.not.i.i12, label %39, label %_ZN7QStringC2ERKS_.exit13

39:                                               ; preds = %_ZN7QStringC2ERKS_.exit11
  %40 = atomicrmw add ptr %36, i32 1 seq_cst, align 4
  br label %_ZN7QStringC2ERKS_.exit13

_ZN7QStringC2ERKS_.exit13:                        ; preds = %_ZN7QStringC2ERKS_.exit11, %39
  ret void

41:                                               ; preds = %_ZN7QStringC2ERKS_.exit
  %42 = landingpad { ptr, i32 }
          cleanup
  tail call void @_ZN7QStringD2Ev(ptr noundef nonnull align 8 dereferenceable(8) %8) #21
  resume { ptr, i32 } %42
}